
STM32_USART_DRIVER_LL_V2_CM4.elf:     file format elf32-littlearm

Sections:
Idx Name          Size      VMA       LMA       File off  Algn
  0 .isr_vector   00000298  08100000  08100000  00001000  2**0
                  CONTENTS, ALLOC, LOAD, READONLY, DATA
  1 .text         0000042c  08100298  08100298  00001298  2**2
                  CONTENTS, ALLOC, LOAD, READONLY, CODE
  2 .rodata       0000000c  081006c4  081006c4  000016c4  2**2
                  CONTENTS, ALLOC, LOAD, READONLY, DATA
  3 .init_array   00000004  081006d0  081006d0  000016d0  2**2
                  CONTENTS, ALLOC, LOAD, READONLY, DATA
  4 .fini_array   00000004  081006d4  081006d4  000016d4  2**2
                  CONTENTS, ALLOC, LOAD, READONLY, DATA
  5 .data         00000158  10000000  081006d8  00002000  2**2
                  CONTENTS, ALLOC, LOAD, DATA
  6 .bss          0000001c  10000158  08100830  00002158  2**2
                  ALLOC
  7 ._user_heap_stack 00000604  10000174  08100830  00002174  2**0
                  ALLOC
  8 .ARM.attributes 00000030  00000000  00000000  00002158  2**0
                  CONTENTS, READONLY
  9 .debug_info   00001131  00000000  00000000  00002188  2**0
                  CONTENTS, READONLY, DEBUGGING, OCTETS
 10 .debug_abbrev 000004d6  00000000  00000000  000032b9  2**0
                  CONTENTS, READONLY, DEBUGGING, OCTETS
 11 .debug_aranges 00000128  00000000  00000000  00003790  2**3
                  CONTENTS, READONLY, DEBUGGING, OCTETS
 12 .debug_rnglists 000000c4  00000000  00000000  000038b8  2**0
                  CONTENTS, READONLY, DEBUGGING, OCTETS
 13 .debug_macro  00032ac7  00000000  00000000  0000397c  2**0
                  CONTENTS, READONLY, DEBUGGING, OCTETS
 14 .debug_line   000023a8  00000000  00000000  00036443  2**0
                  CONTENTS, READONLY, DEBUGGING, OCTETS
 15 .debug_str    001214a2  00000000  00000000  000387eb  2**0
                  CONTENTS, READONLY, DEBUGGING, OCTETS
 16 .comment      00000043  00000000  00000000  00159c8d  2**0
                  CONTENTS, READONLY
 17 .debug_frame  00000290  00000000  00000000  00159cd0  2**2
                  CONTENTS, READONLY, DEBUGGING, OCTETS
 18 .debug_line_str 00000078  00000000  00000000  00159f60  2**0
                  CONTENTS, READONLY, DEBUGGING, OCTETS

Disassembly of section .text:

08100298 <__do_global_dtors_aux>:
 8100298:	b510      	push	{r4, lr}
 810029a:	4c05      	ldr	r4, [pc, #20]	@ (81002b0 <__do_global_dtors_aux+0x18>)
 810029c:	7823      	ldrb	r3, [r4, #0]
 810029e:	b933      	cbnz	r3, 81002ae <__do_global_dtors_aux+0x16>
 81002a0:	4b04      	ldr	r3, [pc, #16]	@ (81002b4 <__do_global_dtors_aux+0x1c>)
 81002a2:	b113      	cbz	r3, 81002aa <__do_global_dtors_aux+0x12>
 81002a4:	4804      	ldr	r0, [pc, #16]	@ (81002b8 <__do_global_dtors_aux+0x20>)
 81002a6:	f3af 8000 	nop.w
 81002aa:	2301      	movs	r3, #1
 81002ac:	7023      	strb	r3, [r4, #0]
 81002ae:	bd10      	pop	{r4, pc}
 81002b0:	10000158 	.word	0x10000158
 81002b4:	00000000 	.word	0x00000000
 81002b8:	081006ac 	.word	0x081006ac

081002bc <frame_dummy>:
 81002bc:	b508      	push	{r3, lr}
 81002be:	4b03      	ldr	r3, [pc, #12]	@ (81002cc <frame_dummy+0x10>)
 81002c0:	b11b      	cbz	r3, 81002ca <frame_dummy+0xe>
 81002c2:	4903      	ldr	r1, [pc, #12]	@ (81002d0 <frame_dummy+0x14>)
 81002c4:	4803      	ldr	r0, [pc, #12]	@ (81002d4 <frame_dummy+0x18>)
 81002c6:	f3af 8000 	nop.w
 81002ca:	bd08      	pop	{r3, pc}
 81002cc:	00000000 	.word	0x00000000
 81002d0:	1000015c 	.word	0x1000015c
 81002d4:	081006ac 	.word	0x081006ac

081002d8 <SystemInit>:
  *         configuration.
  * @param  None
  * @retval None
  */
void SystemInit (void)
{
 81002d8:	b480      	push	{r7}
 81002da:	af00      	add	r7, sp, #0
  /* FPU settings ------------------------------------------------------------*/
  #if (__FPU_PRESENT == 1) && (__FPU_USED == 1)
    SCB->CPACR |= ((3UL << (10*2))|(3UL << (11*2)));  /* set CP10 and CP11 Full Access */
 81002dc:	4b09      	ldr	r3, [pc, #36]	@ (8100304 <SystemInit+0x2c>)
 81002de:	f8d3 3088 	ldr.w	r3, [r3, #136]	@ 0x88
 81002e2:	4a08      	ldr	r2, [pc, #32]	@ (8100304 <SystemInit+0x2c>)
 81002e4:	f443 0370 	orr.w	r3, r3, #15728640	@ 0xf00000
 81002e8:	f8c2 3088 	str.w	r3, [r2, #136]	@ 0x88
  #endif

    /*SEVONPEND enabled so that an interrupt coming from the CPU(n) interrupt signal is
     detectable by the CPU after a WFI/WFE instruction.*/
 SCB->SCR |= SCB_SCR_SEVONPEND_Msk;
 81002ec:	4b05      	ldr	r3, [pc, #20]	@ (8100304 <SystemInit+0x2c>)
 81002ee:	691b      	ldr	r3, [r3, #16]
 81002f0:	4a04      	ldr	r2, [pc, #16]	@ (8100304 <SystemInit+0x2c>)
 81002f2:	f043 0310 	orr.w	r3, r3, #16
 81002f6:	6113      	str	r3, [r2, #16]
#endif /* USER_VECT_TAB_ADDRESS */

#else
#error Please #define CORE_CM4 or CORE_CM7
#endif /* CORE_CM4 */
}
 81002f8:	bf00      	nop
 81002fa:	46bd      	mov	sp, r7
 81002fc:	f85d 7b04 	ldr.w	r7, [sp], #4
 8100300:	4770      	bx	lr
 8100302:	bf00      	nop
 8100304:	e000ed00 	.word	0xe000ed00

08100308 <gpio_check_freq>:
	.LCKR = GPIO_LCKR_offset,
	.AFR = {GPIO_AFR_offset_0, GPIO_AFR_offset_1}
};


void gpio_check_freq(void){
 8100308:	b480      	push	{r7}
 810030a:	b085      	sub	sp, #20
 810030c:	af00      	add	r7, sp, #0

	volatile uint32_t *RCC_AHB4ENR_register = (volatile uint32_t *)RCC_AHB4ENR_address;
 810030e:	4b20      	ldr	r3, [pc, #128]	@ (8100390 <gpio_check_freq+0x88>)
 8100310:	60fb      	str	r3, [r7, #12]
	//Activer la clock sur GPIOA
	*RCC_AHB4ENR_register |= AHB4ENR_A;
 8100312:	68fb      	ldr	r3, [r7, #12]
 8100314:	681b      	ldr	r3, [r3, #0]
 8100316:	f043 0201 	orr.w	r2, r3, #1
 810031a:	68fb      	ldr	r3, [r7, #12]
 810031c:	601a      	str	r2, [r3, #0]

	/* TODO : Créer une fonction pour la déclaration des registres en tant que pointer */
	volatile uint32_t *GPIO_A_MODER_register = (volatile uint32_t *)((uint32_t)GPIOA + GPIO_offset.MODER);
 810031e:	4b1d      	ldr	r3, [pc, #116]	@ (8100394 <gpio_check_freq+0x8c>)
 8100320:	681b      	ldr	r3, [r3, #0]
 8100322:	f103 43b0 	add.w	r3, r3, #1476395008	@ 0x58000000
 8100326:	f503 3300 	add.w	r3, r3, #131072	@ 0x20000
 810032a:	60bb      	str	r3, [r7, #8]

	*GPIO_A_MODER_register &= ~GPIO_MODER_MODE8_0;
 810032c:	68bb      	ldr	r3, [r7, #8]
 810032e:	681b      	ldr	r3, [r3, #0]
 8100330:	f423 3280 	bic.w	r2, r3, #65536	@ 0x10000
 8100334:	68bb      	ldr	r3, [r7, #8]
 8100336:	601a      	str	r2, [r3, #0]
	*GPIO_A_MODER_register |= GPIO_MODER_MODE8_1;
 8100338:	68bb      	ldr	r3, [r7, #8]
 810033a:	681b      	ldr	r3, [r3, #0]
 810033c:	f443 3200 	orr.w	r2, r3, #131072	@ 0x20000
 8100340:	68bb      	ldr	r3, [r7, #8]
 8100342:	601a      	str	r2, [r3, #0]


	// Choix de la fonction alternative --> MCO1 sur PA8 --> AF0 --> 0000
	volatile uint32_t *GPIO_A_AFRH_register = (volatile uint32_t *)((uint32_t)GPIOA + GPIO_offset.AFR[GPIO_AFR_offset_1]);
 8100344:	4b13      	ldr	r3, [pc, #76]	@ (8100394 <gpio_check_freq+0x8c>)
 8100346:	f8d3 30b0 	ldr.w	r3, [r3, #176]	@ 0xb0
 810034a:	f103 43b0 	add.w	r3, r3, #1476395008	@ 0x58000000
 810034e:	f503 3300 	add.w	r3, r3, #131072	@ 0x20000
 8100352:	607b      	str	r3, [r7, #4]

	*GPIO_A_AFRH_register &= ~GPIO_AFRH_AFSEL8_0;
 8100354:	687b      	ldr	r3, [r7, #4]
 8100356:	681b      	ldr	r3, [r3, #0]
 8100358:	f023 0201 	bic.w	r2, r3, #1
 810035c:	687b      	ldr	r3, [r7, #4]
 810035e:	601a      	str	r2, [r3, #0]
	*GPIO_A_AFRH_register &= ~GPIO_AFRH_AFSEL8_1;
 8100360:	687b      	ldr	r3, [r7, #4]
 8100362:	681b      	ldr	r3, [r3, #0]
 8100364:	f023 0202 	bic.w	r2, r3, #2
 8100368:	687b      	ldr	r3, [r7, #4]
 810036a:	601a      	str	r2, [r3, #0]
	*GPIO_A_AFRH_register &= ~GPIO_AFRH_AFSEL8_2;
 810036c:	687b      	ldr	r3, [r7, #4]
 810036e:	681b      	ldr	r3, [r3, #0]
 8100370:	f023 0204 	bic.w	r2, r3, #4
 8100374:	687b      	ldr	r3, [r7, #4]
 8100376:	601a      	str	r2, [r3, #0]
	*GPIO_A_AFRH_register &= ~GPIO_AFRH_AFSEL8_3;
 8100378:	687b      	ldr	r3, [r7, #4]
 810037a:	681b      	ldr	r3, [r3, #0]
 810037c:	f023 0208 	bic.w	r2, r3, #8
 8100380:	687b      	ldr	r3, [r7, #4]
 8100382:	601a      	str	r2, [r3, #0]



}
 8100384:	bf00      	nop
 8100386:	3714      	adds	r7, #20
 8100388:	46bd      	mov	sp, r7
 810038a:	f85d 7b04 	ldr.w	r7, [sp], #4
 810038e:	4770      	bx	lr
 8100390:	580244e0 	.word	0x580244e0
 8100394:	10000000 	.word	0x10000000

08100398 <delay>:

void delay(uint32_t nb){
 8100398:	b480      	push	{r7}
 810039a:	b085      	sub	sp, #20
 810039c:	af00      	add	r7, sp, #0
 810039e:	6078      	str	r0, [r7, #4]

	uint32_t i;

	for(i=0; i<nb; i++){}
 81003a0:	2300      	movs	r3, #0
 81003a2:	60fb      	str	r3, [r7, #12]
 81003a4:	e002      	b.n	81003ac <delay+0x14>
 81003a6:	68fb      	ldr	r3, [r7, #12]
 81003a8:	3301      	adds	r3, #1
 81003aa:	60fb      	str	r3, [r7, #12]
 81003ac:	68fa      	ldr	r2, [r7, #12]
 81003ae:	687b      	ldr	r3, [r7, #4]
 81003b0:	429a      	cmp	r2, r3
 81003b2:	d3f8      	bcc.n	81003a6 <delay+0xe>
}
 81003b4:	bf00      	nop
 81003b6:	bf00      	nop
 81003b8:	3714      	adds	r7, #20
 81003ba:	46bd      	mov	sp, r7
 81003bc:	f85d 7b04 	ldr.w	r7, [sp], #4
 81003c0:	4770      	bx	lr
	...

081003c4 <blink_LED4>:

void blink_LED4(void){
 81003c4:	b580      	push	{r7, lr}
 81003c6:	b084      	sub	sp, #16
 81003c8:	af00      	add	r7, sp, #0

	volatile uint32_t *GPIO_K_MODER_register = (volatile uint32_t *)((uint32_t)GPIOK + GPIO_offset.MODER);
 81003ca:	4b1c      	ldr	r3, [pc, #112]	@ (810043c <blink_LED4+0x78>)
 81003cc:	681b      	ldr	r3, [r3, #0]
 81003ce:	f103 43b0 	add.w	r3, r3, #1476395008	@ 0x58000000
 81003d2:	f503 330a 	add.w	r3, r3, #141312	@ 0x22800
 81003d6:	60fb      	str	r3, [r7, #12]
	volatile uint32_t *GPIO_K_BSRR_register = (volatile uint32_t *)((uint32_t)GPIOK + GPIO_offset.BSRR);
 81003d8:	4b18      	ldr	r3, [pc, #96]	@ (810043c <blink_LED4+0x78>)
 81003da:	699b      	ldr	r3, [r3, #24]
 81003dc:	f103 43b0 	add.w	r3, r3, #1476395008	@ 0x58000000
 81003e0:	f503 330a 	add.w	r3, r3, #141312	@ 0x22800
 81003e4:	60bb      	str	r3, [r7, #8]

	volatile uint32_t *RCC_AHB4ENR_register = (volatile uint32_t *)RCC_AHB4ENR_address;
 81003e6:	4b16      	ldr	r3, [pc, #88]	@ (8100440 <blink_LED4+0x7c>)
 81003e8:	607b      	str	r3, [r7, #4]

	//Activation de la clock sur GPIO K
	*RCC_AHB4ENR_register |= AHB4ENR_K;
 81003ea:	687b      	ldr	r3, [r7, #4]
 81003ec:	681b      	ldr	r3, [r3, #0]
 81003ee:	f443 6280 	orr.w	r2, r3, #1024	@ 0x400
 81003f2:	687b      	ldr	r3, [r7, #4]
 81003f4:	601a      	str	r2, [r3, #0]

	//Configuration de PK6 en OUPTUT
	*GPIO_K_MODER_register |= GPIO_MODER_MODE6_0;
 81003f6:	68fb      	ldr	r3, [r7, #12]
 81003f8:	681b      	ldr	r3, [r3, #0]
 81003fa:	f443 5280 	orr.w	r2, r3, #4096	@ 0x1000
 81003fe:	68fb      	ldr	r3, [r7, #12]
 8100400:	601a      	str	r2, [r3, #0]
	*GPIO_K_MODER_register &= ~ GPIO_MODER_MODE6_1;
 8100402:	68fb      	ldr	r3, [r7, #12]
 8100404:	681b      	ldr	r3, [r3, #0]
 8100406:	f423 5200 	bic.w	r2, r3, #8192	@ 0x2000
 810040a:	68fb      	ldr	r3, [r7, #12]
 810040c:	601a      	str	r2, [r3, #0]
	 *	BSRR[15:0] =  ‘1’: Set
	 *	BSRR[31:15] = ‘0’: Nothing
	 *	BSRR[31:15] = ‘1’: Reset
	*/
	//Bit mis à 1
	*GPIO_K_BSRR_register |= GPIO_BSRR_BS6;
 810040e:	68bb      	ldr	r3, [r7, #8]
 8100410:	681b      	ldr	r3, [r3, #0]
 8100412:	f043 0240 	orr.w	r2, r3, #64	@ 0x40
 8100416:	68bb      	ldr	r3, [r7, #8]
 8100418:	601a      	str	r2, [r3, #0]
	delay(100000);
 810041a:	480a      	ldr	r0, [pc, #40]	@ (8100444 <blink_LED4+0x80>)
 810041c:	f7ff ffbc 	bl	8100398 <delay>
	*GPIO_K_BSRR_register |= GPIO_BSRR_BR6;
 8100420:	68bb      	ldr	r3, [r7, #8]
 8100422:	681b      	ldr	r3, [r3, #0]
 8100424:	f443 0280 	orr.w	r2, r3, #4194304	@ 0x400000
 8100428:	68bb      	ldr	r3, [r7, #8]
 810042a:	601a      	str	r2, [r3, #0]
	delay(100000);
 810042c:	4805      	ldr	r0, [pc, #20]	@ (8100444 <blink_LED4+0x80>)
 810042e:	f7ff ffb3 	bl	8100398 <delay>
}
 8100432:	bf00      	nop
 8100434:	3710      	adds	r7, #16
 8100436:	46bd      	mov	sp, r7
 8100438:	bd80      	pop	{r7, pc}
 810043a:	bf00      	nop
 810043c:	10000000 	.word	0x10000000
 8100440:	580244e0 	.word	0x580244e0
 8100444:	000186a0 	.word	0x000186a0

08100448 <clock_config>:
	    .APB1HLPENR = APB1HLPENR_offset,
	    .APB2LPENR = APB2LPENR_offset,
	    .APB4LPENR = APB4LPENR_offset
};

void clock_config(){
 8100448:	b480      	push	{r7}
 810044a:	b087      	sub	sp, #28
 810044c:	af00      	add	r7, sp, #0


	volatile uint32_t *RCC_RSR_register = (volatile uint32_t *)((uint32_t)RCC_BASE + RCC_offset.RSR);
 810044e:	4b4e      	ldr	r3, [pc, #312]	@ (8100588 <clock_config+0x140>)
 8100450:	f8d3 30d0 	ldr.w	r3, [r3, #208]	@ 0xd0
 8100454:	f103 43b0 	add.w	r3, r3, #1476395008	@ 0x58000000
 8100458:	f503 3311 	add.w	r3, r3, #148480	@ 0x24400
 810045c:	617b      	str	r3, [r7, #20]
	volatile uint32_t *RCC_CFGR_register = (volatile uint32_t *)((uint32_t)RCC_BASE + RCC_offset.CFGR);
 810045e:	4b4a      	ldr	r3, [pc, #296]	@ (8100588 <clock_config+0x140>)
 8100460:	691b      	ldr	r3, [r3, #16]
 8100462:	f103 43b0 	add.w	r3, r3, #1476395008	@ 0x58000000
 8100466:	f503 3311 	add.w	r3, r3, #148480	@ 0x24400
 810046a:	613b      	str	r3, [r7, #16]
	volatile uint32_t *RCC_CR_register = (volatile uint32_t *)((uint32_t)RCC_BASE + RCC_offset.CR);
 810046c:	4b46      	ldr	r3, [pc, #280]	@ (8100588 <clock_config+0x140>)
 810046e:	681b      	ldr	r3, [r3, #0]
 8100470:	f103 43b0 	add.w	r3, r3, #1476395008	@ 0x58000000
 8100474:	f503 3311 	add.w	r3, r3, #148480	@ 0x24400
 8100478:	60fb      	str	r3, [r7, #12]
	volatile uint32_t *RCC_D1CFGR_register = (volatile uint32_t *)((uint32_t)RCC_BASE + RCC_offset.D1CFGR);
 810047a:	4b43      	ldr	r3, [pc, #268]	@ (8100588 <clock_config+0x140>)
 810047c:	699b      	ldr	r3, [r3, #24]
 810047e:	f103 43b0 	add.w	r3, r3, #1476395008	@ 0x58000000
 8100482:	f503 3311 	add.w	r3, r3, #148480	@ 0x24400
 8100486:	60bb      	str	r3, [r7, #8]

	//volatile uint32_t *RCC_PLL1DIVR_register = (volatile uint32_t *)((uint32_t)RCC_BASE + RCC_offset.PLL1DIVR);
	volatile uint32_t *RCC_PLLCKSELR_register = (volatile uint32_t *)((uint32_t)RCC_BASE + RCC_offset.PLLCKSELR);
 8100488:	4b3f      	ldr	r3, [pc, #252]	@ (8100588 <clock_config+0x140>)
 810048a:	6a9b      	ldr	r3, [r3, #40]	@ 0x28
 810048c:	f103 43b0 	add.w	r3, r3, #1476395008	@ 0x58000000
 8100490:	f503 3311 	add.w	r3, r3, #148480	@ 0x24400
 8100494:	607b      	str	r3, [r7, #4]
	//volatile uint32_t *RCC_CR_register = (volatile uint32_t *)((uint32_t)RCC_BASE + RCC_offset.CR);

	*RCC_RSR_register |= RCC_RSR_SFT2RSTF; //Reset des registres du CPU2
 8100496:	697b      	ldr	r3, [r7, #20]
 8100498:	681b      	ldr	r3, [r3, #0]
 810049a:	f043 7200 	orr.w	r2, r3, #33554432	@ 0x2000000
 810049e:	697b      	ldr	r3, [r7, #20]
 81004a0:	601a      	str	r2, [r3, #0]
	//DIVM3 PRESCALER DISABLED
*/



	*RCC_CR_register |= RCC_CR_HSEON; 			// Clock HSE on
 81004a2:	68fb      	ldr	r3, [r7, #12]
 81004a4:	681b      	ldr	r3, [r3, #0]
 81004a6:	f443 3280 	orr.w	r2, r3, #65536	@ 0x10000
 81004aa:	68fb      	ldr	r3, [r7, #12]
 81004ac:	601a      	str	r2, [r3, #0]
	*RCC_CFGR_register |= RCC_CFGR_SW_HSE; 		// Sys CLK sur HSE
 81004ae:	693b      	ldr	r3, [r7, #16]
 81004b0:	681b      	ldr	r3, [r3, #0]
 81004b2:	f043 0202 	orr.w	r2, r3, #2
 81004b6:	693b      	ldr	r3, [r7, #16]
 81004b8:	601a      	str	r2, [r3, #0]

	*RCC_CR_register &= ~RCC_CR_HSION; 			// Clock HSI off
 81004ba:	68fb      	ldr	r3, [r7, #12]
 81004bc:	681b      	ldr	r3, [r3, #0]
 81004be:	f023 0201 	bic.w	r2, r3, #1
 81004c2:	68fb      	ldr	r3, [r7, #12]
 81004c4:	601a      	str	r2, [r3, #0]
	*RCC_CR_register &= RCC_CR_HSIDIV_1; 		// RAZ prescaler HSI
 81004c6:	68fb      	ldr	r3, [r7, #12]
 81004c8:	681b      	ldr	r3, [r3, #0]
 81004ca:	68fb      	ldr	r3, [r7, #12]
 81004cc:	2200      	movs	r2, #0
 81004ce:	601a      	str	r2, [r3, #0]
	*RCC_CR_register |= RCC_CR_HSIDIV_8; 		// Prescaler HSI /8
 81004d0:	68fb      	ldr	r3, [r7, #12]
 81004d2:	681b      	ldr	r3, [r3, #0]
 81004d4:	f043 0218 	orr.w	r2, r3, #24
 81004d8:	68fb      	ldr	r3, [r7, #12]
 81004da:	601a      	str	r2, [r3, #0]

	/* ------ MUX MCO1 sur HSI [0, 0, 0] ------ */
	*RCC_CFGR_register &= ~RCC_CFGR_MCO1_0;
 81004dc:	693b      	ldr	r3, [r7, #16]
 81004de:	681b      	ldr	r3, [r3, #0]
 81004e0:	f423 0280 	bic.w	r2, r3, #4194304	@ 0x400000
 81004e4:	693b      	ldr	r3, [r7, #16]
 81004e6:	601a      	str	r2, [r3, #0]
	*RCC_CFGR_register &= ~RCC_CFGR_MCO1_1;
 81004e8:	693b      	ldr	r3, [r7, #16]
 81004ea:	681b      	ldr	r3, [r3, #0]
 81004ec:	f423 0200 	bic.w	r2, r3, #8388608	@ 0x800000
 81004f0:	693b      	ldr	r3, [r7, #16]
 81004f2:	601a      	str	r2, [r3, #0]
	*RCC_CFGR_register &= ~RCC_CFGR_MCO1_2;
 81004f4:	693b      	ldr	r3, [r7, #16]
 81004f6:	681b      	ldr	r3, [r3, #0]
 81004f8:	f023 7280 	bic.w	r2, r3, #16777216	@ 0x1000000
 81004fc:	693b      	ldr	r3, [r7, #16]
 81004fe:	601a      	str	r2, [r3, #0]

	*RCC_CFGR_register &= RCC_CFGR_SW_HSI; // Sys CLK sur HSI
 8100500:	693b      	ldr	r3, [r7, #16]
 8100502:	681b      	ldr	r3, [r3, #0]
 8100504:	693b      	ldr	r3, [r7, #16]
 8100506:	2200      	movs	r2, #0
 8100508:	601a      	str	r2, [r3, #0]

	/* ------ division par 10 à la sortie sur MCO1 ------ */
	*RCC_CFGR_register &= ~RCC_CFGR_MCO1PRE_0;
 810050a:	693b      	ldr	r3, [r7, #16]
 810050c:	681b      	ldr	r3, [r3, #0]
 810050e:	f423 2280 	bic.w	r2, r3, #262144	@ 0x40000
 8100512:	693b      	ldr	r3, [r7, #16]
 8100514:	601a      	str	r2, [r3, #0]
	*RCC_CFGR_register |= RCC_CFGR_MCO1PRE_1;
 8100516:	693b      	ldr	r3, [r7, #16]
 8100518:	681b      	ldr	r3, [r3, #0]
 810051a:	f443 2200 	orr.w	r2, r3, #524288	@ 0x80000
 810051e:	693b      	ldr	r3, [r7, #16]
 8100520:	601a      	str	r2, [r3, #0]
	*RCC_CFGR_register &= ~RCC_CFGR_MCO1PRE_2;
 8100522:	693b      	ldr	r3, [r7, #16]
 8100524:	681b      	ldr	r3, [r3, #0]
 8100526:	f423 1280 	bic.w	r2, r3, #1048576	@ 0x100000
 810052a:	693b      	ldr	r3, [r7, #16]
 810052c:	601a      	str	r2, [r3, #0]
	*RCC_CFGR_register |= RCC_CFGR_MCO1PRE_3;
 810052e:	693b      	ldr	r3, [r7, #16]
 8100530:	681b      	ldr	r3, [r3, #0]
 8100532:	f443 1200 	orr.w	r2, r3, #2097152	@ 0x200000
 8100536:	693b      	ldr	r3, [r7, #16]
 8100538:	601a      	str	r2, [r3, #0]

	*RCC_CR_register |= RCC_CR_HSION; // Clock HSI on
 810053a:	68fb      	ldr	r3, [r7, #12]
 810053c:	681b      	ldr	r3, [r3, #0]
 810053e:	f043 0201 	orr.w	r2, r3, #1
 8100542:	68fb      	ldr	r3, [r7, #12]
 8100544:	601a      	str	r2, [r3, #0]
	while(((*RCC_CR_register >> 2) & 0x1) != 1) ; // Attente HSI stable
 8100546:	bf00      	nop
 8100548:	68fb      	ldr	r3, [r7, #12]
 810054a:	681b      	ldr	r3, [r3, #0]
 810054c:	089b      	lsrs	r3, r3, #2
 810054e:	f003 0301 	and.w	r3, r3, #1
 8100552:	2b01      	cmp	r3, #1
 8100554:	d1f8      	bne.n	8100548 <clock_config+0x100>

	*RCC_CR_register &= ~RCC_CR_HSEON; 			// Clock HSE off
 8100556:	68fb      	ldr	r3, [r7, #12]
 8100558:	681b      	ldr	r3, [r3, #0]
 810055a:	f423 3280 	bic.w	r2, r3, #65536	@ 0x10000
 810055e:	68fb      	ldr	r3, [r7, #12]
 8100560:	601a      	str	r2, [r3, #0]

	*RCC_CR_register |= RCC_CR_PLL1ON; // PLL1 ON
	while(((*RCC_CR_register >> 25) & 0x1) != 1) ; // PLL1 clock ready
*/

	*RCC_D1CFGR_register &= ~RCC_D1CFGR_HPRE_DIV1; //HPRE PRESCALER /0
 8100562:	68bb      	ldr	r3, [r7, #8]
 8100564:	681a      	ldr	r2, [r3, #0]
 8100566:	68bb      	ldr	r3, [r7, #8]
 8100568:	601a      	str	r2, [r3, #0]
	*RCC_D1CFGR_register &= ~RCC_D1CFGR_D1PPRE_DIV1; //D1PPRE PRESCALER /0
 810056a:	68bb      	ldr	r3, [r7, #8]
 810056c:	681a      	ldr	r2, [r3, #0]
 810056e:	68bb      	ldr	r3, [r7, #8]
 8100570:	601a      	str	r2, [r3, #0]
	*RCC_D1CFGR_register &= ~RCC_D1CFGR_D1CPRE_DIV1; //D1CPRE PRESCALER /0
 8100572:	68bb      	ldr	r3, [r7, #8]
 8100574:	681a      	ldr	r2, [r3, #0]
 8100576:	68bb      	ldr	r3, [r7, #8]
 8100578:	601a      	str	r2, [r3, #0]


}
 810057a:	bf00      	nop
 810057c:	371c      	adds	r7, #28
 810057e:	46bd      	mov	sp, r7
 8100580:	f85d 7b04 	ldr.w	r7, [sp], #4
 8100584:	4770      	bx	lr
 8100586:	bf00      	nop
 8100588:	10000028 	.word	0x10000028

0810058c <main>:
/**
  * @brief  The application entry point.
  * @retval int
  */
int main(void)
{
 810058c:	b580      	push	{r7, lr}
 810058e:	b084      	sub	sp, #16
 8100590:	af00      	add	r7, sp, #0
  /* USER CODE END SysInit */

  /* Initialize all configured peripherals */
  /* USER CODE BEGIN 2 */

	clock_config();
 8100592:	f7ff ff59 	bl	8100448 <clock_config>
	gpio_check_freq();
 8100596:	f7ff feb7 	bl	8100308 <gpio_check_freq>

	/* Configuration de la liaison USART */
	 USART_Config_t usart_config = {
 810059a:	4a04      	ldr	r2, [pc, #16]	@ (81005ac <main+0x20>)
 810059c:	1d3b      	adds	r3, r7, #4
 810059e:	ca07      	ldmia	r2, {r0, r1, r2}
 81005a0:	e883 0007 	stmia.w	r3, {r0, r1, r2}

  /* Infinite loop */
  /* USER CODE BEGIN WHILE */
  while (1)
  {
	  blink_LED4();
 81005a4:	f7ff ff0e 	bl	81003c4 <blink_LED4>
 81005a8:	e7fc      	b.n	81005a4 <main+0x18>
 81005aa:	bf00      	nop
 81005ac:	081006c4 	.word	0x081006c4

081005b0 <NMI_Handler>:
/******************************************************************************/
/**
  * @brief This function handles Non maskable interrupt.
  */
void NMI_Handler(void)
{
 81005b0:	b480      	push	{r7}
 81005b2:	af00      	add	r7, sp, #0
  /* USER CODE BEGIN NonMaskableInt_IRQn 0 */

  /* USER CODE END NonMaskableInt_IRQn 0 */
  /* USER CODE BEGIN NonMaskableInt_IRQn 1 */
  while (1)
 81005b4:	bf00      	nop
 81005b6:	e7fd      	b.n	81005b4 <NMI_Handler+0x4>

081005b8 <HardFault_Handler>:

/**
  * @brief This function handles Hard fault interrupt.
  */
void HardFault_Handler(void)
{
 81005b8:	b480      	push	{r7}
 81005ba:	af00      	add	r7, sp, #0
  /* USER CODE BEGIN HardFault_IRQn 0 */

  /* USER CODE END HardFault_IRQn 0 */
  while (1)
 81005bc:	bf00      	nop
 81005be:	e7fd      	b.n	81005bc <HardFault_Handler+0x4>

081005c0 <MemManage_Handler>:

/**
  * @brief This function handles Memory management fault.
  */
void MemManage_Handler(void)
{
 81005c0:	b480      	push	{r7}
 81005c2:	af00      	add	r7, sp, #0
  /* USER CODE BEGIN MemoryManagement_IRQn 0 */

  /* USER CODE END MemoryManagement_IRQn 0 */
  while (1)
 81005c4:	bf00      	nop
 81005c6:	e7fd      	b.n	81005c4 <MemManage_Handler+0x4>

081005c8 <BusFault_Handler>:

/**
  * @brief This function handles Pre-fetch fault, memory access fault.
  */
void BusFault_Handler(void)
{
 81005c8:	b480      	push	{r7}
 81005ca:	af00      	add	r7, sp, #0
  /* USER CODE BEGIN BusFault_IRQn 0 */

  /* USER CODE END BusFault_IRQn 0 */
  while (1)
 81005cc:	bf00      	nop
 81005ce:	e7fd      	b.n	81005cc <BusFault_Handler+0x4>

081005d0 <UsageFault_Handler>:

/**
  * @brief This function handles Undefined instruction or illegal state.
  */
void UsageFault_Handler(void)
{
 81005d0:	b480      	push	{r7}
 81005d2:	af00      	add	r7, sp, #0
  /* USER CODE BEGIN UsageFault_IRQn 0 */

  /* USER CODE END UsageFault_IRQn 0 */
  while (1)
 81005d4:	bf00      	nop
 81005d6:	e7fd      	b.n	81005d4 <UsageFault_Handler+0x4>

081005d8 <SVC_Handler>:

/**
  * @brief This function handles System service call via SWI instruction.
  */
void SVC_Handler(void)
{
 81005d8:	b480      	push	{r7}
 81005da:	af00      	add	r7, sp, #0

  /* USER CODE END SVCall_IRQn 0 */
  /* USER CODE BEGIN SVCall_IRQn 1 */

  /* USER CODE END SVCall_IRQn 1 */
}
 81005dc:	bf00      	nop
 81005de:	46bd      	mov	sp, r7
 81005e0:	f85d 7b04 	ldr.w	r7, [sp], #4
 81005e4:	4770      	bx	lr

081005e6 <DebugMon_Handler>:

/**
  * @brief This function handles Debug monitor.
  */
void DebugMon_Handler(void)
{
 81005e6:	b480      	push	{r7}
 81005e8:	af00      	add	r7, sp, #0

  /* USER CODE END DebugMonitor_IRQn 0 */
  /* USER CODE BEGIN DebugMonitor_IRQn 1 */

  /* USER CODE END DebugMonitor_IRQn 1 */
}
 81005ea:	bf00      	nop
 81005ec:	46bd      	mov	sp, r7
 81005ee:	f85d 7b04 	ldr.w	r7, [sp], #4
 81005f2:	4770      	bx	lr

081005f4 <PendSV_Handler>:

/**
  * @brief This function handles Pendable request for system service.
  */
void PendSV_Handler(void)
{
 81005f4:	b480      	push	{r7}
 81005f6:	af00      	add	r7, sp, #0

  /* USER CODE END PendSV_IRQn 0 */
  /* USER CODE BEGIN PendSV_IRQn 1 */

  /* USER CODE END PendSV_IRQn 1 */
}
 81005f8:	bf00      	nop
 81005fa:	46bd      	mov	sp, r7
 81005fc:	f85d 7b04 	ldr.w	r7, [sp], #4
 8100600:	4770      	bx	lr

08100602 <SysTick_Handler>:

/**
  * @brief This function handles System tick timer.
  */
void SysTick_Handler(void)
{
 8100602:	b480      	push	{r7}
 8100604:	af00      	add	r7, sp, #0
  /* USER CODE END SysTick_IRQn 0 */

  /* USER CODE BEGIN SysTick_IRQn 1 */

  /* USER CODE END SysTick_IRQn 1 */
}
 8100606:	bf00      	nop
 8100608:	46bd      	mov	sp, r7
 810060a:	f85d 7b04 	ldr.w	r7, [sp], #4
 810060e:	4770      	bx	lr

08100610 <Reset_Handler>:

    .section  .text.Reset_Handler
  .weak  Reset_Handler
  .type  Reset_Handler, %function
Reset_Handler:
  ldr   sp, =_estack      /* set stack pointer */
 8100610:	f8df d034 	ldr.w	sp, [pc, #52]	@ 8100648 <LoopFillZerobss+0xe>

/* Call the clock system initialization function.*/
  bl  SystemInit
 8100614:	f7ff fe60 	bl	81002d8 <SystemInit>

/* Copy the data segment initializers from flash to SRAM */
  ldr r0, =_sdata
 8100618:	480c      	ldr	r0, [pc, #48]	@ (810064c <LoopFillZerobss+0x12>)
  ldr r1, =_edata
 810061a:	490d      	ldr	r1, [pc, #52]	@ (8100650 <LoopFillZerobss+0x16>)
  ldr r2, =_sidata
 810061c:	4a0d      	ldr	r2, [pc, #52]	@ (8100654 <LoopFillZerobss+0x1a>)
  movs r3, #0
 810061e:	2300      	movs	r3, #0
  b LoopCopyDataInit
 8100620:	e002      	b.n	8100628 <LoopCopyDataInit>

08100622 <CopyDataInit>:

CopyDataInit:
  ldr r4, [r2, r3]
 8100622:	58d4      	ldr	r4, [r2, r3]
  str r4, [r0, r3]
 8100624:	50c4      	str	r4, [r0, r3]
  adds r3, r3, #4
 8100626:	3304      	adds	r3, #4

08100628 <LoopCopyDataInit>:

LoopCopyDataInit:
  adds r4, r0, r3
 8100628:	18c4      	adds	r4, r0, r3
  cmp r4, r1
 810062a:	428c      	cmp	r4, r1
  bcc CopyDataInit
 810062c:	d3f9      	bcc.n	8100622 <CopyDataInit>
/* Zero fill the bss segment. */
  ldr r2, =_sbss
 810062e:	4a0a      	ldr	r2, [pc, #40]	@ (8100658 <LoopFillZerobss+0x1e>)
  ldr r4, =_ebss
 8100630:	4c0a      	ldr	r4, [pc, #40]	@ (810065c <LoopFillZerobss+0x22>)
  movs r3, #0
 8100632:	2300      	movs	r3, #0
  b LoopFillZerobss
 8100634:	e001      	b.n	810063a <LoopFillZerobss>

08100636 <FillZerobss>:

FillZerobss:
  str  r3, [r2]
 8100636:	6013      	str	r3, [r2, #0]
  adds r2, r2, #4
 8100638:	3204      	adds	r2, #4

0810063a <LoopFillZerobss>:

LoopFillZerobss:
  cmp r2, r4
 810063a:	42a2      	cmp	r2, r4
  bcc FillZerobss
 810063c:	d3fb      	bcc.n	8100636 <FillZerobss>

/* Call static constructors */
    bl __libc_init_array
 810063e:	f000 f811 	bl	8100664 <__libc_init_array>
/* Call the application's entry point.*/
  bl  main
 8100642:	f7ff ffa3 	bl	810058c <main>
  bx  lr
 8100646:	4770      	bx	lr
  ldr   sp, =_estack      /* set stack pointer */
 8100648:	10048000 	.word	0x10048000
  ldr r0, =_sdata
 810064c:	10000000 	.word	0x10000000
  ldr r1, =_edata
 8100650:	10000158 	.word	0x10000158
  ldr r2, =_sidata
 8100654:	081006d8 	.word	0x081006d8
  ldr r2, =_sbss
 8100658:	10000158 	.word	0x10000158
  ldr r4, =_ebss
 810065c:	10000174 	.word	0x10000174

08100660 <ADC3_IRQHandler>:
 * @retval None
*/
    .section  .text.Default_Handler,"ax",%progbits
Default_Handler:
Infinite_Loop:
  b  Infinite_Loop
 8100660:	e7fe      	b.n	8100660 <ADC3_IRQHandler>
	...

08100664 <__libc_init_array>:
 8100664:	b570      	push	{r4, r5, r6, lr}
 8100666:	4d0d      	ldr	r5, [pc, #52]	@ (810069c <__libc_init_array+0x38>)
 8100668:	4c0d      	ldr	r4, [pc, #52]	@ (81006a0 <__libc_init_array+0x3c>)
 810066a:	1b64      	subs	r4, r4, r5
 810066c:	10a4      	asrs	r4, r4, #2
 810066e:	2600      	movs	r6, #0
 8100670:	42a6      	cmp	r6, r4
 8100672:	d109      	bne.n	8100688 <__libc_init_array+0x24>
 8100674:	4d0b      	ldr	r5, [pc, #44]	@ (81006a4 <__libc_init_array+0x40>)
 8100676:	4c0c      	ldr	r4, [pc, #48]	@ (81006a8 <__libc_init_array+0x44>)
 8100678:	f000 f818 	bl	81006ac <_init>
 810067c:	1b64      	subs	r4, r4, r5
 810067e:	10a4      	asrs	r4, r4, #2
 8100680:	2600      	movs	r6, #0
 8100682:	42a6      	cmp	r6, r4
 8100684:	d105      	bne.n	8100692 <__libc_init_array+0x2e>
 8100686:	bd70      	pop	{r4, r5, r6, pc}
 8100688:	f855 3b04 	ldr.w	r3, [r5], #4
 810068c:	4798      	blx	r3
 810068e:	3601      	adds	r6, #1
 8100690:	e7ee      	b.n	8100670 <__libc_init_array+0xc>
 8100692:	f855 3b04 	ldr.w	r3, [r5], #4
 8100696:	4798      	blx	r3
 8100698:	3601      	adds	r6, #1
 810069a:	e7f2      	b.n	8100682 <__libc_init_array+0x1e>
 810069c:	081006d0 	.word	0x081006d0
 81006a0:	081006d0 	.word	0x081006d0
 81006a4:	081006d0 	.word	0x081006d0
 81006a8:	081006d4 	.word	0x081006d4

081006ac <_init>:
 81006ac:	b5f8      	push	{r3, r4, r5, r6, r7, lr}
 81006ae:	bf00      	nop
 81006b0:	bcf8      	pop	{r3, r4, r5, r6, r7}
 81006b2:	bc08      	pop	{r3}
 81006b4:	469e      	mov	lr, r3
 81006b6:	4770      	bx	lr

081006b8 <_fini>:
 81006b8:	b5f8      	push	{r3, r4, r5, r6, r7, lr}
 81006ba:	bf00      	nop
 81006bc:	bcf8      	pop	{r3, r4, r5, r6, r7}
 81006be:	bc08      	pop	{r3}
 81006c0:	469e      	mov	lr, r3
 81006c2:	4770      	bx	lr
